; Function Attrs: mustprogress uwtable
define dso_local void @_ZN3net22QuicCryptoServerStream30SetPreviousCachedNetworkParamsENS_23CachedNetworkParametersE(ptr nocapture noundef nonnull align 8 dereferenceable(1328) %this, ptr noundef %cached_network_params) unnamed_addr #0 align 2 personality ptr @__gxx_personality_v0 {
entry:
  %call = tail call noalias noundef nonnull dereferenceable(72) ptr @_Znwm(i64 noundef 72) #18
  invoke void @_ZN3net23CachedNetworkParametersC1ERKS0_(ptr noundef nonnull align 8 dereferenceable(72) %call, ptr noundef nonnull align 8 dereferenceable(72) %cached_network_params)
          to label %invoke.cont unwind label %lpad

invoke.cont:                                      ; preds = %entry
  %previous_cached_network_params_ = getelementptr inbounds i8, ptr %this, i64 1248
  %0 = load ptr, ptr %previous_cached_network_params_, align 8
  store ptr %call, ptr %previous_cached_network_params_, align 8
  %tobool.not.i.i = icmp eq ptr %0, null
  br i1 %tobool.not.i.i, label %_ZNSt10unique_ptrIN3net23CachedNetworkParametersESt14default_deleteIS1_EE5resetEPS1_.exit, label %_ZNKSt14default_deleteIN3net23CachedNetworkParametersEEclEPS1_.exit.i.i

_ZNKSt14default_deleteIN3net23CachedNetworkParametersEEclEPS1_.exit.i.i: ; preds = %invoke.cont
  %vtable.i.i.i = load ptr, ptr %0, align 8
  %vfn.i.i.i = getelementptr inbounds i8, ptr %vtable.i.i.i, i64 8
  %1 = load ptr, ptr %vfn.i.i.i, align 8
  tail call void %1(ptr noundef nonnull align 8 dereferenceable(72) %0) #15
  br label %_ZNSt10unique_ptrIN3net23CachedNetworkParametersESt14default_deleteIS1_EE5resetEPS1_.exit

_ZNSt10unique_ptrIN3net23CachedNetworkParametersESt14default_deleteIS1_EE5resetEPS1_.exit: ; preds = %invoke.cont, %_ZNKSt14default_deleteIN3net23CachedNetworkParametersEEclEPS1_.exit.i.i
  ret void

lpad:                                             ; preds = %entry
  %2 = landingpad { ptr, i32 }
          cleanup
  tail call void @_ZdlPv(ptr noundef nonnull %call) #17
  resume { ptr, i32 } %2
}